; Function Attrs: mustprogress uwtable
define dso_local noundef i32 @getNote(ptr noundef %source, i32 noundef %srcLen, ptr nocapture noundef readonly %dest, i32 noundef %destCapacity, ptr noundef %status) local_unnamed_addr #0 personality ptr @__gxx_personality_v0 {
entry:
  %notePatternString = alloca %"class.icu_75::UnicodeString", align 8
  %agg.tmp = alloca %"class.icu_75::UnicodeString", align 8
  call void @_ZN6icu_7513UnicodeStringC1EPKc(ptr noundef nonnull align 8 dereferenceable(64) %notePatternString, ptr noundef nonnull @.str.11)
  invoke void @_ZN6icu_7513UnicodeStringC1ERKS0_(ptr noundef nonnull align 8 dereferenceable(64) %agg.tmp, ptr noundef nonnull align 8 dereferenceable(64) %notePatternString)
          to label %invoke.cont unwind label %lpad

invoke.cont:                                      ; preds = %entry
  %call = invoke i32 @getText(ptr noundef %source, i32 noundef %srcLen, ptr noundef %dest, i32 noundef %destCapacity, ptr noundef nonnull %agg.tmp, ptr noundef %status)
          to label %invoke.cont2 unwind label %lpad1

invoke.cont2:                                     ; preds = %invoke.cont
  call void @_ZN6icu_7513UnicodeStringD1Ev(ptr noundef nonnull align 8 dereferenceable(64) %agg.tmp) #5
  %0 = load ptr, ptr %dest, align 8
  %call4 = invoke i32 @trim(ptr noundef %0, i32 noundef %call, ptr noundef %status)
          to label %invoke.cont3 unwind label %lpad

invoke.cont3:                                     ; preds = %invoke.cont2
  call void @_ZN6icu_7513UnicodeStringD1Ev(ptr noundef nonnull align 8 dereferenceable(64) %notePatternString) #5
  ret i32 %call4

lpad:                                             ; preds = %invoke.cont2, %entry
  %1 = landingpad { ptr, i32 }
          cleanup
  br label %ehcleanup

lpad1:                                            ; preds = %invoke.cont
  %2 = landingpad { ptr, i32 }
          cleanup
  call void @_ZN6icu_7513UnicodeStringD1Ev(ptr noundef nonnull align 8 dereferenceable(64) %agg.tmp) #5
  br label %ehcleanup

ehcleanup:                                        ; preds = %lpad1, %lpad
  %.pn = phi { ptr, i32 } [ %1, %lpad ], [ %2, %lpad1 ]
  call void @_ZN6icu_7513UnicodeStringD1Ev(ptr noundef nonnull align 8 dereferenceable(64) %notePatternString) #5
  resume { ptr, i32 } %.pn
}